(dp0
S'miruna'
p1
(lp2
S'person_color'
p3
accopy_reg
_reconstructor
p4
(cgeometry_msgs.msg._PoseStamped
PoseStamped
p5
c__builtin__
object
p6
Ntp7
Rp8
(lp9
g4
(cstd_msgs.msg._Header
Header
p10
g6
Ntp11
Rp12
(lp13
I0
ag4
(cgenpy.rostime
Time
p14
g6
Ntp15
Rp16
(lp17
I0
aI0
abaS'odom'
p18
abag4
(cgeometry_msgs.msg._Pose
Pose
p19
g6
Ntp20
Rp21
(lp22
g4
(cgeometry_msgs.msg._Point
Point
p23
g6
Ntp24
Rp25
(lp26
cnumpy.core.multiarray
scalar
p27
(cnumpy
dtype
p28
(S'f8'
p29
I0
I1
tp30
Rp31
(I3
S'<'
p32
NNNI-1
I-1
I0
tp33
bS'\xa5\x93X\xad[g\x08\xc0'
p34
tp35
Rp36
ag27
(g31
S'\xc8T\xf7\n.B\xd3?'
p37
tp38
Rp39
ag27
(g31
S'E\x08\xe7~\xc61\xf6?'
p40
tp41
Rp42
abag4
(cgeometry_msgs.msg._Quaternion
Quaternion
p43
g6
Ntp44
Rp45
(lp46
g27
(g31
S'\x1a\xdaK\xb3Q~\x00>'
p47
tp48
Rp49
ag27
(g31
S'\xbaq\xc8m#\xf8">'
p50
tp51
Rp52
ag27
(g31
S'\xed`\x95\xca\xdf$\xe4\xbf'
p53
tp54
Rp55
ag27
(g31
S'\xde\xfb\xf5\x00.\xdd\xe8?'
p56
tp57
Rp58
abababasS'alex'
p59
(lp60
g3
ag4
(g5
g6
Ntp61
Rp62
(lp63
g4
(g10
g6
Ntp64
Rp65
(lp66
I0
ag4
(g14
g6
Ntp67
Rp68
(lp69
I0
aI0
abag18
abag4
(g19
g6
Ntp70
Rp71
(lp72
g4
(g23
g6
Ntp73
Rp74
(lp75
g27
(g31
S'GB-\xc3\x07\xd0\r\xc0'
p76
tp77
Rp78
ag27
(g31
S'\x92\x0f`Vl\xc2\xe8?'
p79
tp80
Rp81
ag27
(g31
S'\x1bw:H\x90\xbe\xf5?'
p82
tp83
Rp84
abag4
(g43
g6
Ntp85
Rp86
(lp87
g27
(g31
S'_t\xd9_\x1dJ\xfa\xbd'
p88
tp89
Rp90
ag27
(g31
S'R\xb8\xd0\xb5\x044\xf2='
p91
tp92
Rp93
ag27
(g31
S'\xd2\x1d\xbc\xdc`\xde\xee?'
p94
tp95
Rp96
ag27
(g31
S'\xa6b}\xe5\xff\xdd\xd0?'
p97
tp98
Rp99
abababas.