(dp0
S'alex'
p1
(lp2
S'person_color'
p3
accopy_reg
_reconstructor
p4
(cgeometry_msgs.msg._PoseStamped
PoseStamped
p5
c__builtin__
object
p6
Ntp7
Rp8
(lp9
g4
(cstd_msgs.msg._Header
Header
p10
g6
Ntp11
Rp12
(lp13
I0
ag4
(cgenpy.rostime
Time
p14
g6
Ntp15
Rp16
(lp17
I0
aI0
abaS'odom'
p18
abag4
(cgeometry_msgs.msg._Pose
Pose
p19
g6
Ntp20
Rp21
(lp22
g4
(cgeometry_msgs.msg._Point
Point
p23
g6
Ntp24
Rp25
(lp26
cnumpy.core.multiarray
scalar
p27
(cnumpy
dtype
p28
(S'f8'
p29
I0
I1
tp30
Rp31
(I3
S'<'
p32
NNNI-1
I-1
I0
tp33
bS'8\x0e\xef\xbb\xe4\n\xf2?'
p34
tp35
Rp36
ag27
(g31
S'8\xcf\xe2\x95\xb8\xf6\xd8?'
p37
tp38
Rp39
ag27
(g31
S'\xa2\x05M7\x05\xb2\xf9?'
p40
tp41
Rp42
abag4
(cgeometry_msgs.msg._Quaternion
Quaternion
p43
g6
Ntp44
Rp45
(lp46
g27
(g31
S'Co)\x13\x06m\xe2='
p47
tp48
Rp49
ag27
(g31
S'\x8a>\xbeVW\x9e\xfe='
p50
tp51
Rp52
ag27
(g31
S'\xf3\xec\xa6\x9eZ7\xec?'
p53
tp54
Rp55
ag27
(g31
S'\x7f7F\x0ce0\xde\xbf'
p56
tp57
Rp58
abababasS'unknown'
p59
(lp60
S'person_color'
p61
ag4
(g5
g6
Ntp62
Rp63
(lp64
g4
(g10
g6
Ntp65
Rp66
(lp67
I0
ag4
(g14
g6
Ntp68
Rp69
(lp70
I0
aI0
abag18
abag4
(g19
g6
Ntp71
Rp72
(lp73
g4
(g23
g6
Ntp74
Rp75
(lp76
g27
(g31
S'y\xbb^\x9b^\x01\xf3?'
p77
tp78
Rp79
ag27
(g31
S'\xfc\x04B\x1d\x83\x9d\xd0?'
p80
tp81
Rp82
ag27
(g31
S'>7{S\xa9N\xfa?'
p83
tp84
Rp85
abag4
(g43
g6
Ntp86
Rp87
(lp88
g27
(g31
S'm\xd0\x84u/4->'
p89
tp90
Rp91
ag27
(g31
S'\x91\xaf\x9a`p\x01\x1c\xbe'
p92
tp93
Rp94
ag27
(g31
S'c+\x88\xb1Z7\xec?'
p95
tp96
Rp97
ag27
(g31
S'\xf3\x9f\xb0\xc5d0\xde\xbf'
p98
tp99
Rp100
abababasS'miruna'
p101
(lp102
g3
ag4
(g5
g6
Ntp103
Rp104
(lp105
g4
(g10
g6
Ntp106
Rp107
(lp108
I0
ag4
(g14
g6
Ntp109
Rp110
(lp111
I0
aI0
abag18
abag4
(g19
g6
Ntp112
Rp113
(lp114
g4
(g23
g6
Ntp115
Rp116
(lp117
g27
(g31
S'kk\xe1\nO\xf5\xf2?'
p118
tp119
Rp120
ag27
(g31
S'\xe0B\xb9h\x0c\x17\xd1?'
p121
tp122
Rp123
ag27
(g31
S'\x1c@W<\xaf\x8c\xfa?'
p124
tp125
Rp126
abag4
(g43
g6
Ntp127
Rp128
(lp129
g27
(g31
S'u/O\x9c@\xb9\xf4\xbd'
p130
tp131
Rp132
ag27
(g31
S'\xa5\x0f\xba\x82\xe77\x11\xbe'
p133
tp134
Rp135
ag27
(g31
S'\xbc:\xc8\x9cZ7\xec?'
p136
tp137
Rp138
ag27
(g31
S'g\xdfC\x13e0\xde\xbf'
p139
tp140
Rp141
abababasS'lifts'
p142
(lp143
S'qrcode_color'
p144
ag4
(g5
g6
Ntp145
Rp146
(lp147
g4
(g10
g6
Ntp148
Rp149
(lp150
I0
ag4
(g14
g6
Ntp151
Rp152
(lp153
I0
aI0
abaS'odom'
p154
abag4
(g19
g6
Ntp155
Rp156
(lp157
g4
(g23
g6
Ntp158
Rp159
(lp160
g27
(g31
S'\x1e\xd3\x80G6A\xcf?'
p161
tp162
Rp163
ag27
(g31
S'\x89B\xd4\x1a\tY\x0f@'
p164
tp165
Rp166
ag27
(g31
S'g\xc6\xec\xc8\xaf}\xf5?'
p167
tp168
Rp169
abag4
(g43
g6
Ntp170
Rp171
(lp172
g27
(g31
S'\x99,]\xfc\x0e\r\xe3='
p173
tp174
Rp175
ag27
(g31
S'T\xd5\x1fu\xbf\xa9\xe9='
p176
tp177
Rp178
ag27
(g31
S's\x9d\xc8\\\xd9\x8b\xe3?'
p179
tp180
Rp181
ag27
(g31
S'\xe5u\xdf\xac*V\xe9?'
p182
tp183
Rp184
abababasS'lab308'
p185
(lp186
g144
ag4
(g5
g6
Ntp187
Rp188
(lp189
g4
(g10
g6
Ntp190
Rp191
(lp192
I0
ag4
(g14
g6
Ntp193
Rp194
(lp195
I0
aI0
abaS'odom'
p196
abag4
(g19
g6
Ntp197
Rp198
(lp199
g4
(g23
g6
Ntp200
Rp201
(lp202
g27
(g31
S'\x18\xfd\xacM\xf8\x87\xef\xbf'
p203
tp204
Rp205
ag27
(g31
S'\xe5\xc8\x16\xe5T\x86\xdd?'
p206
tp207
Rp208
ag27
(g31
S'7\x83\xeb"\xf4\x08\xf4?'
p209
tp210
Rp211
abag4
(g43
g6
Ntp212
Rp213
(lp214
g27
(g31
S'q\xf7\x9c\xa5\x1d\xfc\xf5='
p215
tp216
Rp217
ag27
(g31
S'\xc1B\xce"\xa36\x13>'
p218
tp219
Rp220
ag27
(g31
S'\xcf\xfa\xdc\xff\x92N\xed?'
p221
tp222
Rp223
ag27
(g31
S'\xb1\x18\t\xf1\xd3\xb2\xd9?'
p224
tp225
Rp226
abababasS'stephanie'
p227
(lp228
S'person_color'
p229
ag4
(g5
g6
Ntp230
Rp231
(lp232
g4
(g10
g6
Ntp233
Rp234
(lp235
I0
ag4
(g14
g6
Ntp236
Rp237
(lp238
I0
aI0
abag18
abag4
(g19
g6
Ntp239
Rp240
(lp241
g4
(g23
g6
Ntp242
Rp243
(lp244
g27
(g31
S'\x8a\xbfX?\xe7\xf1\xf2?'
p245
tp246
Rp247
ag27
(g31
S'\xc3\xeb\x87\xb6\x175\xd1?'
p248
tp249
Rp250
ag27
(g31
S'k\xd4\x08\x97\xa3\x8d\xfa?'
p251
tp252
Rp253
abag4
(g43
g6
Ntp254
Rp255
(lp256
g27
(g31
S'\xfdV\x15\xed\xeaI\x05\xbf'
p257
tp258
Rp259
ag27
(g31
S'J\xef\n\xb9!\x9f\xe9>'
p260
tp261
Rp262
ag27
(g31
S'N\xa8\x1f\xa0Z7\xec?'
p263
tp264
Rp265
ag27
(g31
S'\x9d\xe0\xb9\x04e0\xde\xbf'
p266
tp267
Rp268
abababas.