(dp0
S'alex'
p1
(lp2
S'person_color'
p3
accopy_reg
_reconstructor
p4
(cgeometry_msgs.msg._PoseStamped
PoseStamped
p5
c__builtin__
object
p6
Ntp7
Rp8
(lp9
g4
(cstd_msgs.msg._Header
Header
p10
g6
Ntp11
Rp12
(lp13
I0
ag4
(cgenpy.rostime
Time
p14
g6
Ntp15
Rp16
(lp17
I0
aI0
abaS'map'
p18
abag4
(cgeometry_msgs.msg._Pose
Pose
p19
g6
Ntp20
Rp21
(lp22
g4
(cgeometry_msgs.msg._Point
Point
p23
g6
Ntp24
Rp25
(lp26
cnumpy.core.multiarray
scalar
p27
(cnumpy
dtype
p28
(S'f8'
p29
I0
I1
tp30
Rp31
(I3
S'<'
p32
NNNI-1
I-1
I0
tp33
bS'\x08\x8c\xbeW<\x82\x14@'
p34
tp35
Rp36
ag27
(g31
S'\xb4\x928\x87\xb5\x07#@'
p37
tp38
Rp39
ag27
(g31
S'Vi\xf3\xac\x9a3\xf3?'
p40
tp41
Rp42
abag4
(cgeometry_msgs.msg._Quaternion
Quaternion
p43
g6
Ntp44
Rp45
(lp46
g27
(g31
S'\x1c\x88\x9f\xd2U5<?'
p47
tp48
Rp49
ag27
(g31
S'{\x08\xa0!\xf6\xfe+?'
p50
tp51
Rp52
ag27
(g31
S'\xe2d\xe2\x0f\xa5J\xea?'
p53
tp54
Rp55
ag27
(g31
S'\x07\xcd\x9bN\xd3=\xe2?'
p56
tp57
Rp58
abababasS'unknown'
p59
(lp60
S'person_color'
p61
ag4
(g5
g6
Ntp62
Rp63
(lp64
g4
(g10
g6
Ntp65
Rp66
(lp67
I0
ag4
(g14
g6
Ntp68
Rp69
(lp70
I0
aI0
abag18
abag4
(g19
g6
Ntp71
Rp72
(lp73
g4
(g23
g6
Ntp74
Rp75
(lp76
g27
(g31
S'\xf8\xb8\xe3f3@\x13@'
p77
tp78
Rp79
ag27
(g31
S'2\xc6\xbaT\x95?"@'
p80
tp81
Rp82
ag27
(g31
S'".\xc2\xce\x06o\xf3?'
p83
tp84
Rp85
abag4
(g43
g6
Ntp86
Rp87
(lp88
g27
(g31
S'\x1c\x88\x9f\xd2U5<?'
p89
tp90
Rp91
ag27
(g31
S'{\x08\xa0!\xf6\xfe+?'
p92
tp93
Rp94
ag27
(g31
S'\xe2d\xe2\x0f\xa5J\xea?'
p95
tp96
Rp97
ag27
(g31
S'\x07\xcd\x9bN\xd3=\xe2?'
p98
tp99
Rp100
abababasS'miruna'
p101
(lp102
S'person_color'
p103
ag4
(g5
g6
Ntp104
Rp105
(lp106
g4
(g10
g6
Ntp107
Rp108
(lp109
I0
ag4
(g14
g6
Ntp110
Rp111
(lp112
I0
aI0
abaS'map'
p113
abag4
(g19
g6
Ntp114
Rp115
(lp116
g4
(g23
g6
Ntp117
Rp118
(lp119
g27
(g31
S'\xe0IA\xb4`\xc7\x1e@'
p120
tp121
Rp122
ag27
(g31
S'\xc8\x94G\\\x7fn\xf5\xbf'
p123
tp124
Rp125
ag27
(g31
S'\xfa\x82\xbf\x83U\xd6\xf9?'
p126
tp127
Rp128
abag4
(g43
g6
Ntp129
Rp130
(lp131
g27
(g31
S'\x80q\xf5\x9e@\x07\x10\xbf'
p132
tp133
Rp134
ag27
(g31
S'$i\xedT"W<<'
p135
tp136
Rp137
ag27
(g31
S'6r\xfe\x9a\xff}\xef?'
p138
tp139
Rp140
ag27
(g31
S'ax\x89\xad\x86\xb6\xc6\xbf'
p141
tp142
Rp143
abababasS'lab303'
p144
(lp145
S'qrcode_color'
p146
ag4
(g5
g6
Ntp147
Rp148
(lp149
g4
(g10
g6
Ntp150
Rp151
(lp152
I6
ag4
(g14
g6
Ntp153
Rp154
(lp155
I0
aI0
abaS'map'
p156
abag4
(g19
g6
Ntp157
Rp158
(lp159
g4
(g23
g6
Ntp160
Rp161
(lp162
g27
(g31
S'o?\x96v6W)@'
p163
tp164
Rp165
ag27
(g31
S'5\x81\xac\xfa\x0bS)@'
p166
tp167
Rp168
ag27
(g31
S'\xfa6\xfe\t\x97u\xf5?'
p169
tp170
Rp171
abag4
(g43
g6
Ntp172
Rp173
(lp174
g27
(g31
S'(I\xaaC\xc2{\x04?'
p175
tp176
Rp177
ag27
(g31
S'n\xecBq\x05_\xe3\xbe'
p178
tp179
Rp180
ag27
(g31
S'|\x96\x8e\xe3\xd4\xe7\xd6?'
p181
tp182
Rp183
ag27
(g31
S'\xbaA\x0c\x95\\\xe1\xed?'
p184
tp185
Rp186
abababasS'lifts'
p187
(lp188
S'qrcode_color'
p189
ag4
(g5
g6
Ntp190
Rp191
(lp192
g4
(g10
g6
Ntp193
Rp194
(lp195
I0
ag4
(g14
g6
Ntp196
Rp197
(lp198
I0
aI0
abaS'map'
p199
abag4
(g19
g6
Ntp200
Rp201
(lp202
g4
(g23
g6
Ntp203
Rp204
(lp205
g27
(g31
S'f\xef\xeeQ^q"@'
p206
tp207
Rp208
ag27
(g31
S'\xe1\x91\x04!\xa6\x1a @'
p209
tp210
Rp211
ag27
(g31
S'\x1d\x110\xfe\xe4\xbf\xf4?'
p212
tp213
Rp214
abag4
(g43
g6
Ntp215
Rp216
(lp217
g27
(g31
S'\xd7e\x11\xacy\xc7S?'
p218
tp219
Rp220
ag27
(g31
S't\x1dx\xba\xe8\xb8\x0c\xbf'
p221
tp222
Rp223
ag27
(g31
S'\xcf+\\wB \xe7\xbf'
p224
tp225
Rp226
ag27
(g31
S'\xed\xedM\xb0\x17\x1e\xe6?'
p227
tp228
Rp229
abababasS'lab306'
p230
(lp231
g146
ag4
(g5
g6
Ntp232
Rp233
(lp234
g4
(g10
g6
Ntp235
Rp236
(lp237
I5
ag4
(g14
g6
Ntp238
Rp239
(lp240
I0
aI0
abag113
abag4
(g19
g6
Ntp241
Rp242
(lp243
g4
(g23
g6
Ntp244
Rp245
(lp246
g27
(g31
S'\\\xb4\xaa\x83\x96\xce\x1e@'
p247
tp248
Rp249
ag27
(g31
S'\x95;`\xcc\xde\x12\xfb\xbf'
p250
tp251
Rp252
ag27
(g31
S'\xcf-\xb3\x02@\xe1\xf2?'
p253
tp254
Rp255
abag4
(g43
g6
Ntp256
Rp257
(lp258
g27
(g31
S'\xda\x94\xc8\x16^\xd64?'
p259
tp260
Rp261
ag27
(g31
S'\x0f-\xb7\xb6I\x9e)?'
p262
tp263
Rp264
ag27
(g31
S'^\x91\xff3?\xd9\xe7\xbf'
p265
tp266
Rp267
ag27
(g31
S'\xff.~! V\xe5?'
p268
tp269
Rp270
abababasS'lab308'
p271
(lp272
g146
ag4
(g5
g6
Ntp273
Rp274
(lp275
g4
(g10
g6
Ntp276
Rp277
(lp278
I0
ag4
(g14
g6
Ntp279
Rp280
(lp281
I0
aI0
abag199
abag4
(g19
g6
Ntp282
Rp283
(lp284
g4
(g23
g6
Ntp285
Rp286
(lp287
g27
(g31
S'XR\x05\x13+$\x1c@'
p288
tp289
Rp290
ag27
(g31
S'v\x13\xe8m\xd6\xcd"@'
p291
tp292
Rp293
ag27
(g31
S'\xbc\x8cT\x1c\x01g\xf3?'
p294
tp295
Rp296
abag4
(g43
g6
Ntp297
Rp298
(lp299
g27
(g31
S'\xcd\xb2\x10|"\xf1=\xbf'
p300
tp301
Rp302
ag27
(g31
S'\xee\xfb\x8b+\xf2\xb2P\xbf'
p303
tp304
Rp305
ag27
(g31
S'\xd7\xbf*~\xbdU\xe8\xbf'
p306
tp307
Rp308
ag27
(g31
S'f\x9a\x93\x03\xb1\xc7\xe4?'
p309
tp310
Rp311
abababasS'stephanie'
p312
(lp313
S'person_color'
p314
ag4
(g5
g6
Ntp315
Rp316
(lp317
g4
(g10
g6
Ntp318
Rp319
(lp320
I0
ag4
(g14
g6
Ntp321
Rp322
(lp323
I0
aI0
abaS'laser'
p324
abag4
(g19
g6
Ntp325
Rp326
(lp327
g4
(g23
g6
Ntp328
Rp329
(lp330
g27
(g31
S"\x05\xcc1\xdbl'\xeb?"
p331
tp332
Rp333
ag27
(g31
S'\xd27\xe0\xa0\xab\xd2\xd5\xbf'
p334
tp335
Rp336
ag27
(g31
S'^3\xb8\xb2y+\xf9?'
p337
tp338
Rp339
abag4
(g43
g6
Ntp340
Rp341
(lp342
F0.0
aF0.0
aF-0.31004562038880024
aF0.9507216802396609
abababas.