(dp0
S'alex'
p1
(lp2
S'person_color'
p3
accopy_reg
_reconstructor
p4
(cgeometry_msgs.msg._PoseStamped
PoseStamped
p5
c__builtin__
object
p6
Ntp7
Rp8
(lp9
g4
(cstd_msgs.msg._Header
Header
p10
g6
Ntp11
Rp12
(lp13
I0
ag4
(cgenpy.rostime
Time
p14
g6
Ntp15
Rp16
(lp17
I0
aI0
abaS'odom'
p18
abag4
(cgeometry_msgs.msg._Pose
Pose
p19
g6
Ntp20
Rp21
(lp22
g4
(cgeometry_msgs.msg._Point
Point
p23
g6
Ntp24
Rp25
(lp26
cnumpy.core.multiarray
scalar
p27
(cnumpy
dtype
p28
(S'f8'
p29
I0
I1
tp30
Rp31
(I3
S'<'
p32
NNNI-1
I-1
I0
tp33
bS'\xa4\xdcQ\xcd\x1aq\xf0?'
p34
tp35
Rp36
ag27
(g31
S'W\x0e\x856\xbc\xf1\xb2\xbf'
p37
tp38
Rp39
ag27
(g31
S'\x8et!J#\xf5\xf8?'
p40
tp41
Rp42
abag4
(cgeometry_msgs.msg._Quaternion
Quaternion
p43
g6
Ntp44
Rp45
(lp46
F0.0
aF0.0
aF0.0
aF0.0
abababasS'unknown'
p47
(lp48
g3
ag4
(g5
g6
Ntp49
Rp50
(lp51
g4
(g10
g6
Ntp52
Rp53
(lp54
I0
ag4
(g14
g6
Ntp55
Rp56
(lp57
I0
aI0
abaS'odom'
p58
abag4
(g19
g6
Ntp59
Rp60
(lp61
g4
(g23
g6
Ntp62
Rp63
(lp64
g27
(g31
S'(\xdeNc\x95q\xf0?'
p65
tp66
Rp67
ag27
(g31
S'\x04RP\x94$\x86\xb2\xbf'
p68
tp69
Rp70
ag27
(g31
S'\xe4%\x9c\xd3o\x1c\xf9?'
p71
tp72
Rp73
abag4
(g43
g6
Ntp74
Rp75
(lp76
F0.0
aF0.0
aF0.0
aF0.0
abababasS'miruna'
p77
(lp78
g3
ag4
(g5
g6
Ntp79
Rp80
(lp81
g4
(g10
g6
Ntp82
Rp83
(lp84
I0
ag4
(g14
g6
Ntp85
Rp86
(lp87
I0
aI0
abag18
abag4
(g19
g6
Ntp88
Rp89
(lp90
g4
(g23
g6
Ntp91
Rp92
(lp93
g27
(g31
S'\xa4\xdcQ\xcd\x1aq\xf0?'
p94
tp95
Rp96
ag27
(g31
S'W\x0e\x856\xbc\xf1\xb2\xbf'
p97
tp98
Rp99
ag27
(g31
S'\x9ct\xf4K\xce\x08\xf9?'
p100
tp101
Rp102
abag4
(g43
g6
Ntp103
Rp104
(lp105
F0.0
aF0.0
aF0.0
aF0.0
abababasS'andrei'
p106
(lp107
g3
ag4
(g5
g6
Ntp108
Rp109
(lp110
g4
(g10
g6
Ntp111
Rp112
(lp113
I0
ag4
(g14
g6
Ntp114
Rp115
(lp116
I0
aI0
abaS'odom'
p117
abag4
(g19
g6
Ntp118
Rp119
(lp120
g4
(g23
g6
Ntp121
Rp122
(lp123
g27
(g31
S'bl\xd2Sc\xb8\xec?'
p124
tp125
Rp126
ag27
(g31
S'0r\xea\xa07\x17\xb6\xbf'
p127
tp128
Rp129
ag27
(g31
S'\r\xd7<b\xf4\xf7\xf7?'
p130
tp131
Rp132
abag4
(g43
g6
Ntp133
Rp134
(lp135
F0.0
aF0.0
aF0.0
aF0.0
abababasS'anabella'
p136
(lp137
S'person_color'
p138
ag4
(g5
g6
Ntp139
Rp140
(lp141
g4
(g10
g6
Ntp142
Rp143
(lp144
I0
ag4
(g14
g6
Ntp145
Rp146
(lp147
I0
aI0
abaS'odom'
p148
abag4
(g19
g6
Ntp149
Rp150
(lp151
g4
(g23
g6
Ntp152
Rp153
(lp154
g27
(g31
S'\x04\x92\xdb3\xb6\xaf\xf3?'
p155
tp156
Rp157
ag27
(g31
S'8$I\xb1\xf5q\xcb\xbf'
p158
tp159
Rp160
ag27
(g31
S'\xd2\x01+-\xcf}\xf9?'
p161
tp162
Rp163
abag4
(g43
g6
Ntp164
Rp165
(lp166
F0.0
aF0.0
aF0.0
aF0.0
abababasS'mihai'
p167
(lp168
S'person_color'
p169
ag4
(g5
g6
Ntp170
Rp171
(lp172
g4
(g10
g6
Ntp173
Rp174
(lp175
I0
ag4
(g14
g6
Ntp176
Rp177
(lp178
I0
aI0
abaS'odom'
p179
abag4
(g19
g6
Ntp180
Rp181
(lp182
g4
(g23
g6
Ntp183
Rp184
(lp185
g27
(g31
S'r9\xb4\xa2\x8f*\xec?'
p186
tp187
Rp188
ag27
(g31
S'Ni+D\x13\xe5\xf1\xbf'
p189
tp190
Rp191
ag27
(g31
S's\xbb\x1e\xdf%\xd1\xf8?'
p192
tp193
Rp194
abag4
(g43
g6
Ntp195
Rp196
(lp197
g27
(g31
S'\x17\xf5\xbb\t\xd4\t\x03\xbe'
p198
tp199
Rp200
ag27
(g31
S'H\x1cd\xc9\x8d\x97-\xbe'
p201
tp202
Rp203
ag27
(g31
S'\xe7\xf5\xaf\x1c\x0b+\xe7?'
p204
tp205
Rp206
ag27
(g31
S'\x8f\x8b\x12\xe0\xcd\x12\xe6?'
p207
tp208
Rp209
abababasS'stephanie'
p210
(lp211
g3
ag4
(g5
g6
Ntp212
Rp213
(lp214
g4
(g10
g6
Ntp215
Rp216
(lp217
I0
ag4
(g14
g6
Ntp218
Rp219
(lp220
I0
aI0
abag148
abag4
(g19
g6
Ntp221
Rp222
(lp223
g4
(g23
g6
Ntp224
Rp225
(lp226
g27
(g31
S'%\xde\x16]\x87_\xf5?'
p227
tp228
Rp229
ag27
(g31
S'=\x8d\xcd\xdd4\x87\xb7\xbf'
p230
tp231
Rp232
ag27
(g31
S'\xa9\xdb\x01\xa5\xd3\xbf\xfa?'
p233
tp234
Rp235
abag4
(g43
g6
Ntp236
Rp237
(lp238
F0.0
aF0.0
aF0.0
aF0.0
abababas.