(dp0
S'unknown'
p1
(lp2
S'person_color'
p3
accopy_reg
_reconstructor
p4
(cgeometry_msgs.msg._PoseStamped
PoseStamped
p5
c__builtin__
object
p6
Ntp7
Rp8
(lp9
g4
(cstd_msgs.msg._Header
Header
p10
g6
Ntp11
Rp12
(lp13
I0
ag4
(cgenpy.rostime
Time
p14
g6
Ntp15
Rp16
(lp17
I0
aI0
abaS'odom'
p18
abag4
(cgeometry_msgs.msg._Pose
Pose
p19
g6
Ntp20
Rp21
(lp22
g4
(cgeometry_msgs.msg._Point
Point
p23
g6
Ntp24
Rp25
(lp26
cnumpy.core.multiarray
scalar
p27
(cnumpy
dtype
p28
(S'f8'
p29
I0
I1
tp30
Rp31
(I3
S'<'
p32
NNNI-1
I-1
I0
tp33
bS'P\xdf\x8f\xcd\xc1\x81\xc1?'
p34
tp35
Rp36
ag27
(g31
S"\x1d\x8cr`'=\xfe?"
p37
tp38
Rp39
ag27
(g31
S'\x85U$7Z\xc2\xf4?'
p40
tp41
Rp42
abag4
(cgeometry_msgs.msg._Quaternion
Quaternion
p43
g6
Ntp44
Rp45
(lp46
g27
(g31
S';\xd0\x94i\xf6\xb0\xc1\xbd'
p47
tp48
Rp49
ag27
(g31
S'\x10\xd5c~\xa0\xf7\x0f>'
p50
tp51
Rp52
ag27
(g31
S'}B\xb9\xf2\x02\x83\xde\xbf'
p53
tp54
Rp55
ag27
(g31
S'\xf6\xb1\x08r\x1a!\xec?'
p56
tp57
Rp58
abababasS'miruna'
p59
(lp60
g3
ag4
(g5
g6
Ntp61
Rp62
(lp63
g4
(g10
g6
Ntp64
Rp65
(lp66
I0
ag4
(g14
g6
Ntp67
Rp68
(lp69
I0
aI0
abaS'odom'
p70
abag4
(g19
g6
Ntp71
Rp72
(lp73
g4
(g23
g6
Ntp74
Rp75
(lp76
g27
(g31
S'\x96U\x18\x94B\xc4\xeb?'
p77
tp78
Rp79
ag27
(g31
S'\xd7\x90\xd3m\xa1\xb9\xb7?'
p80
tp81
Rp82
ag27
(g31
S'#\x1cX\xed\x8c\x9e\xf9?'
p83
tp84
Rp85
abag4
(g43
g6
Ntp86
Rp87
(lp88
g27
(g31
S'ft\xabh\x17X\x1c>'
p89
tp90
Rp91
ag27
(g31
S'q:+\xda\xd9\x16\x13\xbe'
p92
tp93
Rp94
ag27
(g31
S'\x0b\x87\xcc\xa4\xb0\x06\xef?'
p95
tp96
Rp97
ag27
(g31
S'\x1a\xe4\x9c\xf6\x81V\xcf\xbf'
p98
tp99
Rp100
abababasS'alex'
p101
(lp102
S'person_color'
p103
ag4
(g5
g6
Ntp104
Rp105
(lp106
g4
(g10
g6
Ntp107
Rp108
(lp109
I1
ag4
(g14
g6
Ntp110
Rp111
(lp112
I0
aI0
abaS'odom'
p113
abag4
(g19
g6
Ntp114
Rp115
(lp116
g4
(g23
g6
Ntp117
Rp118
(lp119
g27
(g31
S'\x07\xb1<\x87\xe7\xc2\xef?'
p120
tp121
Rp122
ag27
(g31
S'DY\x91m\xf2:\xd7?'
p123
tp124
Rp125
ag27
(g31
S'\x07@a:2\x80\xfa?'
p126
tp127
Rp128
abag4
(g43
g6
Ntp129
Rp130
(lp131
g27
(g31
S'A\xf3\xc7"\xba\xf6 <'
p132
tp133
Rp134
ag27
(g31
S'\x11\xa3no\x80T\t\xbc'
p135
tp136
Rp137
ag27
(g31
S'F9w%\x89/\xe1?'
p138
tp139
Rp140
ag27
(g31
S'0\x95\xb7\xd3Y\xfe\xea?'
p141
tp142
Rp143
abababasS'stephanie'
p144
(lp145
g3
ag4
(g5
g6
Ntp146
Rp147
(lp148
g4
(g10
g6
Ntp149
Rp150
(lp151
I0
ag4
(g14
g6
Ntp152
Rp153
(lp154
I0
aI0
abag18
abag4
(g19
g6
Ntp155
Rp156
(lp157
g4
(g23
g6
Ntp158
Rp159
(lp160
g27
(g31
S'\xc0L\x98\xc6\xf7n\x8a\xbf'
p161
tp162
Rp163
ag27
(g31
S']u\xb9\xde\x16\xdb\xf6?'
p164
tp165
Rp166
ag27
(g31
S'p\xe7\x17\x91\x8b2\xf9?'
p167
tp168
Rp169
abag4
(g43
g6
Ntp170
Rp171
(lp172
g27
(g31
S';\xd0\x94i\xf6\xb0\xc1\xbd'
p173
tp174
Rp175
ag27
(g31
S'\x10\xd5c~\xa0\xf7\x0f>'
p176
tp177
Rp178
ag27
(g31
S'}B\xb9\xf2\x02\x83\xde\xbf'
p179
tp180
Rp181
ag27
(g31
S'\xf6\xb1\x08r\x1a!\xec?'
p182
tp183
Rp184
abababas.