(dp0
S'unknown'
p1
(lp2
S'person_color'
p3
accopy_reg
_reconstructor
p4
(cgeometry_msgs.msg._PoseStamped
PoseStamped
p5
c__builtin__
object
p6
Ntp7
Rp8
(lp9
g4
(cstd_msgs.msg._Header
Header
p10
g6
Ntp11
Rp12
(lp13
I0
ag4
(cgenpy.rostime
Time
p14
g6
Ntp15
Rp16
(lp17
I0
aI0
abaS'odom'
p18
abag4
(cgeometry_msgs.msg._Pose
Pose
p19
g6
Ntp20
Rp21
(lp22
g4
(cgeometry_msgs.msg._Point
Point
p23
g6
Ntp24
Rp25
(lp26
cnumpy.core.multiarray
scalar
p27
(cnumpy
dtype
p28
(S'f8'
p29
I0
I1
tp30
Rp31
(I3
S'<'
p32
NNNI-1
I-1
I0
tp33
bS'\x88\x82\xe2\rNi\xf6?'
p34
tp35
Rp36
ag27
(g31
S'\x8a\xfa6\xebu\xcb\xb5\xbf'
p37
tp38
Rp39
ag27
(g31
S',\xb6]\xf2\xc0\xaa\xfb?'
p40
tp41
Rp42
abag4
(cgeometry_msgs.msg._Quaternion
Quaternion
p43
g6
Ntp44
Rp45
(lp46
F0.0
aF0.0
aF0.0
aF0.0
abababasS'miruna'
p47
(lp48
S'person_color'
p49
ag4
(g5
g6
Ntp50
Rp51
(lp52
g4
(g10
g6
Ntp53
Rp54
(lp55
I0
ag4
(g14
g6
Ntp56
Rp57
(lp58
I0
aI0
abaS'odom'
p59
abag4
(g19
g6
Ntp60
Rp61
(lp62
g4
(g23
g6
Ntp63
Rp64
(lp65
g27
(g31
S'p\xebXz~\xc2\x00@'
p66
tp67
Rp68
ag27
(g31
S'\xca8}\xed\xb3L\xbc\xbf'
p69
tp70
Rp71
ag27
(g31
S'\x07\xf8\xf5\x98gd\xff?'
p72
tp73
Rp74
abag4
(g43
g6
Ntp75
Rp76
(lp77
F0.0
aF0.0
aF0.0
aF0.0
abababasS'alex'
p78
(lp79
g49
ag4
(g5
g6
Ntp80
Rp81
(lp82
g4
(g10
g6
Ntp83
Rp84
(lp85
I0
ag4
(g14
g6
Ntp86
Rp87
(lp88
I0
aI0
abag18
abag4
(g19
g6
Ntp89
Rp90
(lp91
g4
(g23
g6
Ntp92
Rp93
(lp94
g27
(g31
S'\xf6\x9aA\xf1i\xb1\xf9?'
p95
tp96
Rp97
ag27
(g31
S'u\xfcO\xe3\x01N\xba\xbf'
p98
tp99
Rp100
ag27
(g31
S'2Xd\x84\xe3\xfc\xfc?'
p101
tp102
Rp103
abag4
(g43
g6
Ntp104
Rp105
(lp106
F0.0
aF0.0
aF0.0
aF0.0
abababasS'stephanie'
p107
(lp108
S'person_color'
p109
ag4
(g5
g6
Ntp110
Rp111
(lp112
g4
(g10
g6
Ntp113
Rp114
(lp115
I0
ag4
(g14
g6
Ntp116
Rp117
(lp118
I0
aI0
abaS'odom'
p119
abag4
(g19
g6
Ntp120
Rp121
(lp122
g4
(g23
g6
Ntp123
Rp124
(lp125
g27
(g31
S'\xca\xbe5/$\xea\x01@'
p126
tp127
Rp128
ag27
(g31
S'\x97\xc5\x86\xbbeN\x8d\xbf'
p129
tp130
Rp131
ag27
(g31
S'\xca\x98f%-i\x00@'
p132
tp133
Rp134
abag4
(g43
g6
Ntp135
Rp136
(lp137
F0.0
aF0.0
aF0.0
aF0.0
abababas.