(dp0
S'unknown'
p1
(lp2
S'person_color'
p3
accopy_reg
_reconstructor
p4
(cgeometry_msgs.msg._PoseStamped
PoseStamped
p5
c__builtin__
object
p6
Ntp7
Rp8
(lp9
g4
(cstd_msgs.msg._Header
Header
p10
g6
Ntp11
Rp12
(lp13
I0
ag4
(cgenpy.rostime
Time
p14
g6
Ntp15
Rp16
(lp17
I0
aI0
abaS'odom'
p18
abag4
(cgeometry_msgs.msg._Pose
Pose
p19
g6
Ntp20
Rp21
(lp22
g4
(cgeometry_msgs.msg._Point
Point
p23
g6
Ntp24
Rp25
(lp26
cnumpy.core.multiarray
scalar
p27
(cnumpy
dtype
p28
(S'f8'
p29
I0
I1
tp30
Rp31
(I3
S'<'
p32
NNNI-1
I-1
I0
tp33
bS'P\xdf\x8f\xcd\xc1\x81\xc1?'
p34
tp35
Rp36
ag27
(g31
S"\x1d\x8cr`'=\xfe?"
p37
tp38
Rp39
ag27
(g31
S'\x85U$7Z\xc2\xf4?'
p40
tp41
Rp42
abag4
(cgeometry_msgs.msg._Quaternion
Quaternion
p43
g6
Ntp44
Rp45
(lp46
g27
(g31
S';\xd0\x94i\xf6\xb0\xc1\xbd'
p47
tp48
Rp49
ag27
(g31
S'\x10\xd5c~\xa0\xf7\x0f>'
p50
tp51
Rp52
ag27
(g31
S'}B\xb9\xf2\x02\x83\xde\xbf'
p53
tp54
Rp55
ag27
(g31
S'\xf6\xb1\x08r\x1a!\xec?'
p56
tp57
Rp58
abababasS'miruna'
p59
(lp60
g3
ag4
(g5
g6
Ntp61
Rp62
(lp63
g4
(g10
g6
Ntp64
Rp65
(lp66
I0
ag4
(g14
g6
Ntp67
Rp68
(lp69
I0
aI0
abag18
abag4
(g19
g6
Ntp70
Rp71
(lp72
g4
(g23
g6
Ntp73
Rp74
(lp75
g27
(g31
S'he\xde\x05\xb0\x8a\xbd\xbf'
p76
tp77
Rp78
ag27
(g31
S'\x0f\x1e^\xa6]\x19\x06@'
p79
tp80
Rp81
ag27
(g31
S'\x12\x08I\xd81\xb7\xf5?'
p82
tp83
Rp84
abag4
(g43
g6
Ntp85
Rp86
(lp87
g27
(g31
S';\xd0\x94i\xf6\xb0\xc1\xbd'
p88
tp89
Rp90
ag27
(g31
S'\x10\xd5c~\xa0\xf7\x0f>'
p91
tp92
Rp93
ag27
(g31
S'}B\xb9\xf2\x02\x83\xde\xbf'
p94
tp95
Rp96
ag27
(g31
S'\xf6\xb1\x08r\x1a!\xec?'
p97
tp98
Rp99
abababasS'alex'
p100
(lp101
S'person_color'
p102
ag4
(g5
g6
Ntp103
Rp104
(lp105
g4
(g10
g6
Ntp106
Rp107
(lp108
I0
ag4
(g14
g6
Ntp109
Rp110
(lp111
I0
aI0
abag18
abag4
(g19
g6
Ntp112
Rp113
(lp114
g4
(g23
g6
Ntp115
Rp116
(lp117
g27
(g31
S'\xe8.H\x9bf\x0c\xaa\xbf'
p118
tp119
Rp120
ag27
(g31
S'\xdc\x0bg\x83&\x1e\xf4?'
p121
tp122
Rp123
ag27
(g31
S'\x1b\xe4B\xda\xbe}\xfa?'
p124
tp125
Rp126
abag4
(g43
g6
Ntp127
Rp128
(lp129
g27
(g31
S';\xd0\x94i\xf6\xb0\xc1\xbd'
p130
tp131
Rp132
ag27
(g31
S'\x10\xd5c~\xa0\xf7\x0f>'
p133
tp134
Rp135
ag27
(g31
S'}B\xb9\xf2\x02\x83\xde\xbf'
p136
tp137
Rp138
ag27
(g31
S'\xf6\xb1\x08r\x1a!\xec?'
p139
tp140
Rp141
abababasS'stephanie'
p142
(lp143
g3
ag4
(g5
g6
Ntp144
Rp145
(lp146
g4
(g10
g6
Ntp147
Rp148
(lp149
I0
ag4
(g14
g6
Ntp150
Rp151
(lp152
I0
aI0
abag18
abag4
(g19
g6
Ntp153
Rp154
(lp155
g4
(g23
g6
Ntp156
Rp157
(lp158
g27
(g31
S'\xc0L\x98\xc6\xf7n\x8a\xbf'
p159
tp160
Rp161
ag27
(g31
S']u\xb9\xde\x16\xdb\xf6?'
p162
tp163
Rp164
ag27
(g31
S'p\xe7\x17\x91\x8b2\xf9?'
p165
tp166
Rp167
abag4
(g43
g6
Ntp168
Rp169
(lp170
g27
(g31
S';\xd0\x94i\xf6\xb0\xc1\xbd'
p171
tp172
Rp173
ag27
(g31
S'\x10\xd5c~\xa0\xf7\x0f>'
p174
tp175
Rp176
ag27
(g31
S'}B\xb9\xf2\x02\x83\xde\xbf'
p177
tp178
Rp179
ag27
(g31
S'\xf6\xb1\x08r\x1a!\xec?'
p180
tp181
Rp182
abababas.