(dp0
S'unknown'
p1
(lp2
S'person_color'
p3
accopy_reg
_reconstructor
p4
(cgeometry_msgs.msg._PoseStamped
PoseStamped
p5
c__builtin__
object
p6
Ntp7
Rp8
(lp9
g4
(cstd_msgs.msg._Header
Header
p10
g6
Ntp11
Rp12
(lp13
I0
ag4
(cgenpy.rostime
Time
p14
g6
Ntp15
Rp16
(lp17
I0
aI0
abaS'odom'
p18
abag4
(cgeometry_msgs.msg._Pose
Pose
p19
g6
Ntp20
Rp21
(lp22
g4
(cgeometry_msgs.msg._Point
Point
p23
g6
Ntp24
Rp25
(lp26
cnumpy.core.multiarray
scalar
p27
(cnumpy
dtype
p28
(S'f8'
p29
I0
I1
tp30
Rp31
(I3
S'<'
p32
NNNI-1
I-1
I0
tp33
bS'\xcbul\x9f\xf26\xfc?'
p34
tp35
Rp36
ag27
(g31
S'\xa5\xda0:\xf4\x13\x87\xbf'
p37
tp38
Rp39
ag27
(g31
S'z\x0e\xf3\x92D\x19\xfd?'
p40
tp41
Rp42
abag4
(cgeometry_msgs.msg._Quaternion
Quaternion
p43
g6
Ntp44
Rp45
(lp46
F0.0
aF0.0
aF0.0
aF0.0
abababasS'miruna'
p47
(lp48
S'person_color'
p49
ag4
(g5
g6
Ntp50
Rp51
(lp52
g4
(g10
g6
Ntp53
Rp54
(lp55
I0
ag4
(g14
g6
Ntp56
Rp57
(lp58
I0
aI0
abag18
abag4
(g19
g6
Ntp59
Rp60
(lp61
g4
(g23
g6
Ntp62
Rp63
(lp64
g27
(g31
S'V\x8a\x12UC\x02\xfc?'
p65
tp66
Rp67
ag27
(g31
S'\xb3\xb1 g\xdc\xe8\x86\xbf'
p68
tp69
Rp70
ag27
(g31
S'f]\xfc\x1f(\xda\xfc?'
p71
tp72
Rp73
abag4
(g43
g6
Ntp74
Rp75
(lp76
F0.0
aF0.0
aF0.0
aF0.0
abababasS'alex'
p77
(lp78
g49
ag4
(g5
g6
Ntp79
Rp80
(lp81
g4
(g10
g6
Ntp82
Rp83
(lp84
I0
ag4
(g14
g6
Ntp85
Rp86
(lp87
I0
aI0
abag18
abag4
(g19
g6
Ntp88
Rp89
(lp90
g4
(g23
g6
Ntp91
Rp92
(lp93
g27
(g31
S'[qf\x8a+\xec\xfa?'
p94
tp95
Rp96
ag27
(g31
S'\x8c\x8cE\xbe)A\xbc\xbf'
p97
tp98
Rp99
ag27
(g31
S'\x9a\xcd\xd2(\xfc\xa9\xfd?'
p100
tp101
Rp102
abag4
(g43
g6
Ntp103
Rp104
(lp105
F0.0
aF0.0
aF0.0
aF0.0
abababasS'stephanie'
p106
(lp107
S'person_color'
p108
ag4
(g5
g6
Ntp109
Rp110
(lp111
g4
(g10
g6
Ntp112
Rp113
(lp114
I0
ag4
(g14
g6
Ntp115
Rp116
(lp117
I0
aI0
abaS'odom'
p118
abag4
(g19
g6
Ntp119
Rp120
(lp121
g4
(g23
g6
Ntp122
Rp123
(lp124
g27
(g31
S'\xeaC\x8e\xb0\n\x10\x00@'
p125
tp126
Rp127
ag27
(g31
S'\x0c\xbd\x86\xae\xc1Fz?'
p128
tp129
Rp130
ag27
(g31
S'\x83\xedDT\x0b\x83\xff?'
p131
tp132
Rp133
abag4
(g43
g6
Ntp134
Rp135
(lp136
F0.0
aF0.0
aF0.0
aF0.0
abababas.