(dp0
S'alex'
p1
(lp2
S'person_color'
p3
aNasS'unknown'
p4
(lp5
g3
aNasS'adina'
p6
(lp7
S'person_color'
p8
aNasS'miruna'
p9
(lp10
S'person_color'
p11
aNasS'andrei'
p12
(lp13
S'person_color'
p14
aNasS'stephanie'
p15
(lp16
g3
aNas.