(dp0
S'alex'
p1
(lp2
S'person_color'
p3
accopy_reg
_reconstructor
p4
(cgeometry_msgs.msg._PoseStamped
PoseStamped
p5
c__builtin__
object
p6
Ntp7
Rp8
(lp9
g4
(cstd_msgs.msg._Header
Header
p10
g6
Ntp11
Rp12
(lp13
I0
ag4
(cgenpy.rostime
Time
p14
g6
Ntp15
Rp16
(lp17
I0
aI0
abaS'odom'
p18
abag4
(cgeometry_msgs.msg._Pose
Pose
p19
g6
Ntp20
Rp21
(lp22
g4
(cgeometry_msgs.msg._Point
Point
p23
g6
Ntp24
Rp25
(lp26
cnumpy.core.multiarray
scalar
p27
(cnumpy
dtype
p28
(S'f8'
p29
I0
I1
tp30
Rp31
(I3
S'<'
p32
NNNI-1
I-1
I0
tp33
bS'b\xd5\xcd\x8b9\x14\xe9?'
p34
tp35
Rp36
ag27
(g31
S'\xdb\x8e0\x18m\x1b\xd1\xbf'
p37
tp38
Rp39
ag27
(g31
S'\x9b8\xa3\xda\xe4a\xfa?'
p40
tp41
Rp42
abag4
(cgeometry_msgs.msg._Quaternion
Quaternion
p43
g6
Ntp44
Rp45
(lp46
g27
(g31
S'l\xddN\xee\xfeR0>'
p47
tp48
Rp49
ag27
(g31
S'\xe3\x10\x1d\x16df\x0e\xbe'
p50
tp51
Rp52
ag27
(g31
S'\x9c\x1awZ\x8d\xff\xef?'
p53
tp54
Rp55
ag27
(g31
S'\x80\xc2\xee*\x12j\x85\xbf'
p56
tp57
Rp58
abababasS'unknown'
p59
(lp60
g3
ag4
(g5
g6
Ntp61
Rp62
(lp63
g4
(g10
g6
Ntp64
Rp65
(lp66
I0
ag4
(g14
g6
Ntp67
Rp68
(lp69
I0
aI0
abag18
abag4
(g19
g6
Ntp70
Rp71
(lp72
g4
(g23
g6
Ntp73
Rp74
(lp75
g27
(g31
S'\x04\xfe-b\x94\t\xf2?'
p76
tp77
Rp78
ag27
(g31
S'rC@\xae\xde\xe8\xcd\xbf'
p79
tp80
Rp81
ag27
(g31
S'4O~FR\xbc\xf5?'
p82
tp83
Rp84
abag4
(g43
g6
Ntp85
Rp86
(lp87
g27
(g31
S'\xf8\xfb\x97\xd5\xe5\x0b\n\xbf'
p88
tp89
Rp90
ag27
(g31
S'\x9ex\xb5\xd0#\x9a\xfe>'
p91
tp92
Rp93
ag27
(g31
S'"1iZ\x8d\xff\xef?'
p94
tp95
Rp96
ag27
(g31
S'\xcf\xfd\xf7(\xfei\x85\xbf'
p97
tp98
Rp99
abababasS'miruna'
p100
(lp101
g3
ag4
(g5
g6
Ntp102
Rp103
(lp104
g4
(g10
g6
Ntp105
Rp106
(lp107
I0
ag4
(g14
g6
Ntp108
Rp109
(lp110
I0
aI0
abaS'odom'
p111
abag4
(g19
g6
Ntp112
Rp113
(lp114
g4
(g23
g6
Ntp115
Rp116
(lp117
g27
(g31
S'\xbe\x9f\xed_S\x07\xfb?'
p118
tp119
Rp120
ag27
(g31
S't\x83\xda\xf4\xc4"\xdc?'
p121
tp122
Rp123
ag27
(g31
S'\x04+\x9d\xa7\xf2\xdc\xf9?'
p124
tp125
Rp126
abag4
(g43
g6
Ntp127
Rp128
(lp129
g27
(g31
S"]'\xd0\x9a\x92\x9f\xf9\xbe"
p130
tp131
Rp132
ag27
(g31
S'\xdd\xe5\xd1\xd46\x16\xef\xbe'
p133
tp134
Rp135
ag27
(g31
S'\xdbD\xc0f\xe3Y\xef?'
p136
tp137
Rp138
ag27
(g31
S'.8\x118W\xa5\xc9\xbf'
p139
tp140
Rp141
abababasS'andrei'
p142
(lp143
g3
ag4
(g5
g6
Ntp144
Rp145
(lp146
g4
(g10
g6
Ntp147
Rp148
(lp149
I0
ag4
(g14
g6
Ntp150
Rp151
(lp152
I0
aI0
abag18
abag4
(g19
g6
Ntp153
Rp154
(lp155
g4
(g23
g6
Ntp156
Rp157
(lp158
g27
(g31
S'7>QH\x89\x04\xf2?'
p159
tp160
Rp161
ag27
(g31
S'\x04S\xac\xb3\xbbB\xcf\xbf'
p162
tp163
Rp164
ag27
(g31
S'\x94\x1eI=\xe8\xa9\xf5?'
p165
tp166
Rp167
abag4
(g43
g6
Ntp168
Rp169
(lp170
g27
(g31
S'\x96|NS\xad.\xe0='
p171
tp172
Rp173
ag27
(g31
S'\x80\x01\x8d\xdf\x07\x8c\xeb='
p174
tp175
Rp176
ag27
(g31
S'^RM[\x8d\xff\xef?'
p177
tp178
Rp179
ag27
(g31
S'\xe7\xbae)\xfei\x85\xbf'
p180
tp181
Rp182
abababasS'mihai'
p183
(lp184
S'person_color'
p185
ag4
(g5
g6
Ntp186
Rp187
(lp188
g4
(g10
g6
Ntp189
Rp190
(lp191
I0
ag4
(g14
g6
Ntp192
Rp193
(lp194
I0
aI0
abag111
abag4
(g19
g6
Ntp195
Rp196
(lp197
g4
(g23
g6
Ntp198
Rp199
(lp200
g27
(g31
S'r9\xb4\xa2\x8f*\xec?'
p201
tp202
Rp203
ag27
(g31
S'Ni+D\x13\xe5\xf1\xbf'
p204
tp205
Rp206
ag27
(g31
S's\xbb\x1e\xdf%\xd1\xf8?'
p207
tp208
Rp209
abag4
(g43
g6
Ntp210
Rp211
(lp212
g27
(g31
S'\x17\xf5\xbb\t\xd4\t\x03\xbe'
p213
tp214
Rp215
ag27
(g31
S'H\x1cd\xc9\x8d\x97-\xbe'
p216
tp217
Rp218
ag27
(g31
S'\xe7\xf5\xaf\x1c\x0b+\xe7?'
p219
tp220
Rp221
ag27
(g31
S'\x8f\x8b\x12\xe0\xcd\x12\xe6?'
p222
tp223
Rp224
abababasS'stephanie'
p225
(lp226
g3
ag4
(g5
g6
Ntp227
Rp228
(lp229
g4
(g10
g6
Ntp230
Rp231
(lp232
I0
ag4
(g14
g6
Ntp233
Rp234
(lp235
I0
aI0
abaS'odom'
p236
abag4
(g19
g6
Ntp237
Rp238
(lp239
g4
(g23
g6
Ntp240
Rp241
(lp242
g27
(g31
S'A$\x0b\xfb\x9b\x19\xf1?'
p243
tp244
Rp245
ag27
(g31
S'?\x02(\xd0\xddx\x8f?'
p246
tp247
Rp248
ag27
(g31
S'\x10s\x80\rp8\xf7?'
p249
tp250
Rp251
abag4
(g43
g6
Ntp252
Rp253
(lp254
F0.0
aF0.0
aF0.0
aF0.0
abababas.